; Function Attrs: nounwind uwtable
define internal void @merged_1v_upsample(ptr noundef %0, ptr noundef %1, ptr nocapture noundef %2, i32 %3, ptr noundef %4, ptr nocapture noundef %5, i32 %6) #0 {
  %8 = getelementptr inbounds i8, ptr %0, i64 608
  %9 = load ptr, ptr %8, align 8
  %10 = getelementptr inbounds i8, ptr %9, i64 40
  %11 = load ptr, ptr %10, align 8
  %12 = load i32, ptr %2, align 4
  %13 = load i32, ptr %5, align 4
  %14 = zext i32 %13 to i64
  %15 = getelementptr inbounds ptr, ptr %4, i64 %14
  tail call void %11(ptr noundef %0, ptr noundef %1, i32 noundef %12, ptr noundef %15) #5
  %16 = load i32, ptr %5, align 4
  %17 = add i32 %16, 1
  store i32 %17, ptr %5, align 4
  %18 = load i32, ptr %2, align 4
  %19 = add i32 %18, 1
  store i32 %19, ptr %2, align 4
  ret void
}